; Function Attrs: nounwind uwtable
define noalias nonnull ptr @l_Lean_Elab_WF_varyingVarNames___lambda__1(ptr noundef readonly captures(none) %0, ptr noundef readnone captures(none) %1, ptr noundef readnone captures(none) %2, ptr noundef readnone captures(none) %3, ptr noundef readnone captures(none) %4, ptr noundef readnone captures(none) %5, ptr noundef %6) local_unnamed_addr #0 {
  %8 = getelementptr i8, ptr %0, i64 8
  %.val = load i64, ptr %8, align 8, !tbaa !12
  tail call void @lean_inc_heartbeat() #5
  %9 = tail call noalias ptr @mi_malloc_small(i64 noundef 24) #5
  %10 = icmp eq ptr %9, null
  br i1 %10, label %11, label %lean_alloc_ctor.exit

11:                                               ; preds = %7
  tail call void @lean_internal_panic_out_of_memory() #6
  unreachable

lean_alloc_ctor.exit:                             ; preds = %7
  %12 = shl i64 %.val, 1
  %13 = or disjoint i64 %12, 1
  %14 = inttoptr i64 %13 to ptr
  %15 = getelementptr inbounds nuw i8, ptr %9, i64 4
  store i32 1, ptr %9, align 4, !tbaa !4
  store i32 131096, ptr %15, align 4
  %16 = getelementptr inbounds nuw i8, ptr %9, i64 8
  store ptr %14, ptr %16, align 8, !tbaa !10
  %17 = getelementptr inbounds nuw i8, ptr %9, i64 16
  store ptr %6, ptr %17, align 8, !tbaa !10
  ret ptr %9
}